; Function Attrs: nounwind uwtable
define hidden i32 @drsuapi_dissect_struct_DsGetDCInfo1(ptr noundef %0, i32 noundef %1, ptr noundef %2, ptr noundef %3, ptr noundef %4, ptr noundef %5, i32 noundef %6, i32 %7) local_unnamed_addr #0 {
  %9 = getelementptr inbounds nuw i8, ptr %4, i64 72
  %10 = load ptr, ptr %9, align 8
  %11 = getelementptr inbounds nuw i8, ptr %10, i64 96
  %12 = load i32, ptr %11, align 8
  %13 = and i32 %12, 1
  %.not = icmp eq i32 %13, 0
  %14 = getelementptr inbounds nuw i8, ptr %4, i64 28
  %15 = load i32, ptr %14, align 4
  %.not70 = icmp ne i32 %15, 0
  br i1 %.not, label %21, label %16

16:                                               ; preds = %8
  %17 = and i32 %1, 7
  %.not73 = icmp eq i32 %17, 0
  %or.cond = or i1 %.not73, %.not70
  br i1 %or.cond, label %26, label %18

18:                                               ; preds = %16
  %19 = and i32 %1, -8
  %20 = add i32 %19, 8
  br label %26

21:                                               ; preds = %8
  %22 = and i32 %1, 3
  %.not71 = icmp eq i32 %22, 0
  %or.cond78 = or i1 %.not71, %.not70
  br i1 %or.cond78, label %26, label %23

23:                                               ; preds = %21
  %24 = and i32 %1, -4
  %25 = add i32 %24, 4
  br label %26

26:                                               ; preds = %21, %23, %16, %18
  %.0 = phi i32 [ %1, %16 ], [ %20, %18 ], [ %1, %21 ], [ %25, %23 ]
  %.not74 = icmp eq ptr %3, null
  br i1 %.not74, label %31, label %27

27:                                               ; preds = %26
  %28 = tail call ptr @proto_tree_add_item(ptr noundef nonnull %3, i32 noundef %6, ptr noundef %0, i32 noundef %.0, i32 noundef -1, i32 noundef 0) #5
  %29 = load i32, ptr @ett_drsuapi_drsuapi_DsGetDCInfo1, align 4
  %30 = tail call ptr @proto_item_add_subtree(ptr noundef %28, i32 noundef %29) #5
  br label %31

31:                                               ; preds = %27, %26
  %.068 = phi ptr [ %28, %27 ], [ null, %26 ]
  %.067 = phi ptr [ %30, %27 ], [ null, %26 ]
  %32 = load i32, ptr @hf_drsuapi_drsuapi_DsGetDCInfo1_netbios_name, align 4
  %33 = tail call i32 @dissect_ndr_embedded_pointer(ptr noundef %0, i32 noundef %.0, ptr noundef %2, ptr noundef %.067, ptr noundef nonnull %4, ptr noundef %5, ptr noundef nonnull @drsuapi_dissect_element_DsGetDCInfo1_netbios_name_, i32 noundef 2, ptr noundef nonnull @.str.1476, i32 noundef %32) #5
  %34 = load i32, ptr @hf_drsuapi_drsuapi_DsGetDCInfo1_dns_name, align 4
  %35 = tail call i32 @dissect_ndr_embedded_pointer(ptr noundef %0, i32 noundef %33, ptr noundef %2, ptr noundef %.067, ptr noundef nonnull %4, ptr noundef %5, ptr noundef nonnull @drsuapi_dissect_element_DsGetDCInfo1_dns_name_, i32 noundef 2, ptr noundef nonnull @.str.1477, i32 noundef %34) #5
  %36 = load i32, ptr @hf_drsuapi_drsuapi_DsGetDCInfo1_site_name, align 4
  %37 = tail call i32 @dissect_ndr_embedded_pointer(ptr noundef %0, i32 noundef %35, ptr noundef %2, ptr noundef %.067, ptr noundef nonnull %4, ptr noundef %5, ptr noundef nonnull @drsuapi_dissect_element_DsGetDCInfo1_site_name_, i32 noundef 2, ptr noundef nonnull @.str.1478, i32 noundef %36) #5
  %38 = load i32, ptr @hf_drsuapi_drsuapi_DsGetDCInfo1_computer_dn, align 4
  %39 = tail call i32 @dissect_ndr_embedded_pointer(ptr noundef %0, i32 noundef %37, ptr noundef %2, ptr noundef %.067, ptr noundef nonnull %4, ptr noundef %5, ptr noundef nonnull @drsuapi_dissect_element_DsGetDCInfo1_computer_dn_, i32 noundef 2, ptr noundef nonnull @.str.1479, i32 noundef %38) #5
  %40 = load i32, ptr @hf_drsuapi_drsuapi_DsGetDCInfo1_server_dn, align 4
  %41 = tail call i32 @dissect_ndr_embedded_pointer(ptr noundef %0, i32 noundef %39, ptr noundef %2, ptr noundef %.067, ptr noundef nonnull %4, ptr noundef %5, ptr noundef nonnull @drsuapi_dissect_element_DsGetDCInfo1_server_dn_, i32 noundef 2, ptr noundef nonnull @.str.1473, i32 noundef %40) #5
  %42 = load i32, ptr @hf_drsuapi_drsuapi_DsGetDCInfo1_is_pdc, align 4
  %43 = tail call i32 @PIDL_dissect_uint32(ptr noundef %0, i32 noundef %41, ptr noundef %2, ptr noundef %.067, ptr noundef nonnull %4, ptr noundef %5, i32 noundef %42, i32 noundef 0) #5
  %44 = load i32, ptr @hf_drsuapi_drsuapi_DsGetDCInfo1_is_enabled, align 4
  %45 = tail call i32 @PIDL_dissect_uint32(ptr noundef %0, i32 noundef %43, ptr noundef %2, ptr noundef %.067, ptr noundef nonnull %4, ptr noundef %5, i32 noundef %44, i32 noundef 0) #5
  %46 = sub i32 %45, %.0
  tail call void @proto_item_set_len(ptr noundef %.068, i32 noundef %46) #5
  %47 = load ptr, ptr %9, align 8
  %48 = getelementptr inbounds nuw i8, ptr %47, i64 96
  %49 = load i32, ptr %48, align 8
  %50 = and i32 %49, 1
  %.not75 = icmp eq i32 %50, 0
  br i1 %.not75, label %58, label %51

51:                                               ; preds = %31
  %52 = getelementptr inbounds nuw i8, ptr %4, i64 28
  %53 = load i32, ptr %52, align 4
  %.not76 = icmp ne i32 %53, 0
  %54 = and i32 %45, 7
  %.not77 = icmp eq i32 %54, 0
  %or.cond79 = or i1 %.not77, %.not76
  br i1 %or.cond79, label %58, label %55

55:                                               ; preds = %51
  %56 = and i32 %45, -8
  %57 = add i32 %56, 8
  br label %58

58:                                               ; preds = %55, %51, %31
  %.1 = phi i32 [ %45, %51 ], [ %57, %55 ], [ %45, %31 ]
  ret i32 %.1
}